target datalayout = "e-m:e-p270:32:32-p271:32:32-p272:64:64-i64:64-i128:128-f80:128-n8:16:32:64-S128"
target triple = "x86_64-pc-linux-gnu"

%struct.H5VL_object_t = type { ptr, ptr, i64 }

@H5_libinit_g = external global i8, align 1
@H5_libterm_g = external global i8, align 1
@.str = private unnamed_addr constant [97 x i8] c"generated/home/dtcxzyw/WorkSpace/Projects/compilers/llvm-opt-benchmark/bench/hdf5/hdf5/src/H5A.c\00", align 1
@H5E_FUNC_g = external global i64, align 8
@H5E_CANTINIT_g = external global i64, align 8
@.str.1 = private unnamed_addr constant [30 x i8] c"library initialization failed\00", align 1
@H5E_CANTSET_g = external global i64, align 8
@.str.2 = private unnamed_addr constant [22 x i8] c"can't set API context\00", align 1
@H5E_ATTR_g = external global i64, align 8
@.str.6 = private unnamed_addr constant [9 x i8] c"app_file\00", align 1
@.str.7 = private unnamed_addr constant [9 x i8] c"app_func\00", align 1
@.str.8 = private unnamed_addr constant [9 x i8] c"app_line\00", align 1
@.str.9 = private unnamed_addr constant [7 x i8] c"loc_id\00", align 1
@.str.15 = private unnamed_addr constant [6 x i8] c"es_id\00", align 1
@H5E_CANTINSERT_g = external global i64, align 8
@.str.17 = private unnamed_addr constant [34 x i8] c"can't insert token into event set\00", align 1
@.str.19 = private unnamed_addr constant [9 x i8] c"obj_name\00", align 1
@.str.20 = private unnamed_addr constant [8 x i8] c"lapl_id\00", align 1
@H5E_CANTRENAME_g = external global i64, align 8
@.str.57 = private unnamed_addr constant [37 x i8] c"can't synchronously rename attribute\00", align 1
@__func__.H5Arename_by_name_async = private unnamed_addr constant [24 x i8] c"H5Arename_by_name_async\00", align 1
@.str.62 = private unnamed_addr constant [16 x i8] c"*s*sIui*s*s*sii\00", align 1
@.str.63 = private unnamed_addr constant [14 x i8] c"old_attr_name\00", align 1
@.str.64 = private unnamed_addr constant [14 x i8] c"new_attr_name\00", align 1

; Function Attrs: nounwind uwtable
define i32 @H5Arename_by_name_async(ptr noundef %0, ptr noundef %1, i32 noundef %2, i64 noundef %3, ptr noundef %4, ptr noundef %5, ptr noundef %6, i64 noundef %7, i64 noundef %8) #0 {
  %10 = alloca ptr, align 8
  %11 = alloca ptr, align 8
  %12 = alloca i32, align 4
  %13 = alloca i64, align 8
  %14 = alloca ptr, align 8
  %15 = alloca ptr, align 8
  %16 = alloca ptr, align 8
  %17 = alloca i64, align 8
  %18 = alloca i64, align 8
  %19 = alloca ptr, align 8
  %20 = alloca ptr, align 8
  %21 = alloca ptr, align 8
  %22 = alloca i32, align 4
  %23 = alloca i8, align 1
  %24 = alloca i8, align 1
  store ptr %0, ptr %10, align 8
  store ptr %1, ptr %11, align 8
  store i32 %2, ptr %12, align 4
  store i64 %3, ptr %13, align 8
  store ptr %4, ptr %14, align 8
  store ptr %5, ptr %15, align 8
  store ptr %6, ptr %16, align 8
  store i64 %7, ptr %17, align 8
  store i64 %8, ptr %18, align 8
  store ptr null, ptr %19, align 8
  store ptr null, ptr %20, align 8
  store ptr null, ptr %21, align 8
  store i32 0, ptr %22, align 4
  store i8 0, ptr %23, align 1
  store i8 0, ptr %24, align 1
  %25 = load i8, ptr @H5_libinit_g, align 1
  %26 = trunc i8 %25 to i1
  br i1 %26, label %31, label %27

27:                                               ; preds = %9
  %28 = load i8, ptr @H5_libterm_g, align 1
  %29 = trunc i8 %28 to i1
  %30 = xor i1 %29, true
  br label %31

31:                                               ; preds = %27, %9
  %32 = phi i1 [ false, %9 ], [ %30, %27 ]
  %33 = xor i1 %32, true
  %34 = xor i1 %33, true
  %35 = zext i1 %34 to i32
  %36 = sext i32 %35 to i64
  %37 = icmp ne i64 %36, 0
  br i1 %37, label %38, label %62

38:                                               ; preds = %31
  %39 = call i32 @H5_init_library()
  %40 = icmp slt i32 %39, 0
  %41 = xor i1 %40, true
  %42 = xor i1 %41, true
  %43 = zext i1 %42 to i32
  %44 = sext i32 %43 to i64
  %45 = icmp ne i64 %44, 0
  br i1 %45, label %46, label %61

46:                                               ; preds = %38
  br label %47

47:                                               ; preds = %46
  br label %48

48:                                               ; preds = %47
  br label %49

49:                                               ; preds = %48
  %50 = load i64, ptr @H5E_FUNC_g, align 8
  %51 = load i64, ptr @H5E_CANTINIT_g, align 8
  %52 = call i32 (ptr, ptr, i32, i64, i64, ptr, ...) @H5E_printf_stack(ptr noundef @.str, ptr noundef @__func__.H5Arename_by_name_async, i32 noundef 1769, i64 noundef %50, i64 noundef %51, ptr noundef @.str.1)
  br label %53

53:                                               ; preds = %49
  store i8 1, ptr %24, align 1
  %54 = load i8, ptr %24, align 1
  %55 = trunc i8 %54 to i1
  %56 = zext i1 %55 to i8
  store i8 %56, ptr %24, align 1
  br label %57

57:                                               ; preds = %53
  br label %58

58:                                               ; preds = %57
  store i32 -1, ptr %22, align 4
  br label %152

59:                                               ; No predecessors!
  br label %60

60:                                               ; preds = %59
  br label %61

61:                                               ; preds = %60, %38
  br label %62

62:                                               ; preds = %61, %31
  %63 = call i32 @H5CX_push()
  %64 = icmp slt i32 %63, 0
  %65 = xor i1 %64, true
  %66 = xor i1 %65, true
  %67 = zext i1 %66 to i32
  %68 = sext i32 %67 to i64
  %69 = icmp ne i64 %68, 0
  br i1 %69, label %70, label %85

70:                                               ; preds = %62
  br label %71

71:                                               ; preds = %70
  br label %72

72:                                               ; preds = %71
  br label %73

73:                                               ; preds = %72
  %74 = load i64, ptr @H5E_FUNC_g, align 8
  %75 = load i64, ptr @H5E_CANTSET_g, align 8
  %76 = call i32 (ptr, ptr, i32, i64, i64, ptr, ...) @H5E_printf_stack(ptr noundef @.str, ptr noundef @__func__.H5Arename_by_name_async, i32 noundef 1769, i64 noundef %74, i64 noundef %75, ptr noundef @.str.2)
  br label %77

77:                                               ; preds = %73
  store i8 1, ptr %24, align 1
  %78 = load i8, ptr %24, align 1
  %79 = trunc i8 %78 to i1
  %80 = zext i1 %79 to i8
  store i8 %80, ptr %24, align 1
  br label %81

81:                                               ; preds = %77
  br label %82

82:                                               ; preds = %81
  store i32 -1, ptr %22, align 4
  br label %152

83:                                               ; No predecessors!
  br label %84

84:                                               ; preds = %83
  br label %86

85:                                               ; preds = %62
  store i8 1, ptr %23, align 1
  br label %86

86:                                               ; preds = %85, %84
  %87 = call i32 @H5E_clear_stack()
  %88 = load i64, ptr %18, align 8
  %89 = icmp ne i64 0, %88
  br i1 %89, label %90, label %91

90:                                               ; preds = %86
  store ptr %20, ptr %21, align 8
  br label %91

91:                                               ; preds = %90, %86
  %92 = load i64, ptr %13, align 8
  %93 = load ptr, ptr %14, align 8
  %94 = load ptr, ptr %15, align 8
  %95 = load ptr, ptr %16, align 8
  %96 = load i64, ptr %17, align 8
  %97 = load ptr, ptr %21, align 8
  %98 = call i32 @H5A__rename_by_name_api_common(i64 noundef %92, ptr noundef %93, ptr noundef %94, ptr noundef %95, i64 noundef %96, ptr noundef %97, ptr noundef %19)
  %99 = icmp slt i32 %98, 0
  br i1 %99, label %100, label %115

100:                                              ; preds = %91
  br label %101

101:                                              ; preds = %100
  br label %102

102:                                              ; preds = %101
  br label %103

103:                                              ; preds = %102
  %104 = load i64, ptr @H5E_ATTR_g, align 8
  %105 = load i64, ptr @H5E_CANTRENAME_g, align 8
  %106 = call i32 (ptr, ptr, i32, i64, i64, ptr, ...) @H5E_printf_stack(ptr noundef @.str, ptr noundef @__func__.H5Arename_by_name_async, i32 noundef 1778, i64 noundef %104, i64 noundef %105, ptr noundef @.str.57)
  br label %107

107:                                              ; preds = %103
  store i8 1, ptr %24, align 1
  %108 = load i8, ptr %24, align 1
  %109 = trunc i8 %108 to i1
  %110 = zext i1 %109 to i8
  store i8 %110, ptr %24, align 1
  br label %111

111:                                              ; preds = %107
  br label %112

112:                                              ; preds = %111
  store i32 -1, ptr %22, align 4
  br label %152

113:                                              ; No predecessors!
  br label %114

114:                                              ; preds = %113
  br label %115

115:                                              ; preds = %114, %91
  %116 = load ptr, ptr %20, align 8
  %117 = icmp ne ptr null, %116
  br i1 %117, label %118, label %151

118:                                              ; preds = %115
  %119 = load i64, ptr %18, align 8
  %120 = load ptr, ptr %19, align 8
  %121 = getelementptr inbounds %struct.H5VL_object_t, ptr %120, i32 0, i32 1
  %122 = load ptr, ptr %121, align 8
  %123 = load ptr, ptr %20, align 8
  %124 = load ptr, ptr %10, align 8
  %125 = load ptr, ptr %11, align 8
  %126 = load i32, ptr %12, align 4
  %127 = load i64, ptr %13, align 8
  %128 = load ptr, ptr %14, align 8
  %129 = load ptr, ptr %15, align 8
  %130 = load ptr, ptr %16, align 8
  %131 = load i64, ptr %17, align 8
  %132 = load i64, ptr %18, align 8
  %133 = call i32 (i64, ptr, ptr, ptr, ptr, ...) @H5ES_insert(i64 noundef %119, ptr noundef %122, ptr noundef %123, ptr noundef @__func__.H5Arename_by_name_async, ptr noundef @.str.62, ptr noundef @.str.6, ptr noundef %124, ptr noundef @.str.7, ptr noundef %125, ptr noundef @.str.8, i32 noundef %126, ptr noundef @.str.9, i64 noundef %127, ptr noundef @.str.19, ptr noundef %128, ptr noundef @.str.63, ptr noundef %129, ptr noundef @.str.64, ptr noundef %130, ptr noundef @.str.20, i64 noundef %131, ptr noundef @.str.15, i64 noundef %132)
  %134 = icmp slt i32 %133, 0
  br i1 %134, label %135, label %150

135:                                              ; preds = %118
  br label %136

136:                                              ; preds = %135
  br label %137

137:                                              ; preds = %136
  br label %138

138:                                              ; preds = %137
  %139 = load i64, ptr @H5E_ATTR_g, align 8
  %140 = load i64, ptr @H5E_CANTINSERT_g, align 8
  %141 = call i32 (ptr, ptr, i32, i64, i64, ptr, ...) @H5E_printf_stack(ptr noundef @.str, ptr noundef @__func__.H5Arename_by_name_async, i32 noundef 1786, i64 noundef %139, i64 noundef %140, ptr noundef @.str.17)
  br label %142

142:                                              ; preds = %138
  store i8 1, ptr %24, align 1
  %143 = load i8, ptr %24, align 1
  %144 = trunc i8 %143 to i1
  %145 = zext i1 %144 to i8
  store i8 %145, ptr %24, align 1
  br label %146

146:                                              ; preds = %142
  br label %147

147:                                              ; preds = %146
  store i32 -1, ptr %22, align 4
  br label %152

148:                                              ; No predecessors!
  br label %149

149:                                              ; preds = %148
  br label %150

150:                                              ; preds = %149, %118
  br label %151

151:                                              ; preds = %150, %115
  br label %152

152:                                              ; preds = %151, %147, %112, %82, %58
  %153 = load i8, ptr %23, align 1
  %154 = trunc i8 %153 to i1
  %155 = xor i1 %154, true
  %156 = xor i1 %155, true
  %157 = zext i1 %156 to i32
  %158 = sext i32 %157 to i64
  %159 = icmp ne i64 %158, 0
  br i1 %159, label %160, label %162

160:                                              ; preds = %152
  %161 = call i32 @H5CX_pop(i1 noundef zeroext true)
  store i8 0, ptr %23, align 1
  br label %162

162:                                              ; preds = %160, %152
  %163 = load i8, ptr %24, align 1
  %164 = trunc i8 %163 to i1
  %165 = xor i1 %164, true
  %166 = xor i1 %165, true
  %167 = zext i1 %166 to i32
  %168 = sext i32 %167 to i64
  %169 = icmp ne i64 %168, 0
  br i1 %169, label %170, label %172

170:                                              ; preds = %162
  %171 = call i32 @H5E_dump_api_stack()
  br label %172

172:                                              ; preds = %170, %162
  %173 = load i32, ptr %22, align 4
  ret i32 %173
}